target datalayout = "e-m:e-p270:32:32-p271:32:32-p272:64:64-i64:64-i128:128-f80:128-n8:16:32:64-S128"
target triple = "x86_64-pc-linux-gnu"

@stderr = external global ptr, align 8
@.str.10 = private unnamed_addr constant [2 x i8] c"\0A\00", align 1
@.str.37 = private unnamed_addr constant [10 x i8] c"Stack now\00", align 1
@.str.38 = private unnamed_addr constant [4 x i8] c" %d\00", align 1

; Function Attrs: mustprogress nounwind uwtable
define internal void @_ZL14yy_stack_printPhS_(ptr noundef %0, ptr noundef %1) #4 {
  %3 = alloca ptr, align 8
  %4 = alloca ptr, align 8
  %5 = alloca i32, align 4
  store ptr %0, ptr %3, align 8, !tbaa !28
  store ptr %1, ptr %4, align 8, !tbaa !28
  %6 = load ptr, ptr @stderr, align 8, !tbaa !34
  %7 = call i32 (ptr, ptr, ...) @fprintf(ptr noundef %6, ptr noundef @.str.37) #3
  br label %8

8:                                                ; preds = %19, %2
  %9 = load ptr, ptr %3, align 8, !tbaa !28
  %10 = load ptr, ptr %4, align 8, !tbaa !28
  %11 = icmp ule ptr %9, %10
  br i1 %11, label %12, label %22

12:                                               ; preds = %8
  call void @llvm.lifetime.start.p0(i64 4, ptr %5) #3
  %13 = load ptr, ptr %3, align 8, !tbaa !28
  %14 = load i8, ptr %13, align 1, !tbaa !36
  %15 = zext i8 %14 to i32
  store i32 %15, ptr %5, align 4, !tbaa !24
  %16 = load ptr, ptr @stderr, align 8, !tbaa !34
  %17 = load i32, ptr %5, align 4, !tbaa !24
  %18 = call i32 (ptr, ptr, ...) @fprintf(ptr noundef %16, ptr noundef @.str.38, i32 noundef %17) #3
  call void @llvm.lifetime.end.p0(i64 4, ptr %5) #3
  br label %19

19:                                               ; preds = %12
  %20 = load ptr, ptr %3, align 8, !tbaa !28
  %21 = getelementptr inbounds nuw i8, ptr %20, i32 1
  store ptr %21, ptr %3, align 8, !tbaa !28
  br label %8, !llvm.loop !131

22:                                               ; preds = %8
  %23 = load ptr, ptr @stderr, align 8, !tbaa !34
  %24 = call i32 (ptr, ptr, ...) @fprintf(ptr noundef %23, ptr noundef @.str.10) #3
  ret void
}